target datalayout = "e-m:e-p270:32:32-p271:32:32-p272:64:64-i64:64-i128:128-f80:128-n8:16:32:64-S128"
target triple = "x86_64-pc-linux-gnu"

%struct._zend_phpdbg_globals = type { [11 x %struct._zend_array], %struct._zend_array, %struct._zend_array, ptr, ptr, %struct.phpdbg_frame_t, i32, ptr, %struct.phpdbg_lexer_data, ptr, %struct.sigaction, i32, i64, %struct.phpdbg_btree, %struct.phpdbg_btree, %struct._zend_array, %struct._zend_array, %struct._zend_array, %struct._zend_array, ptr, ptr, i8, ptr, ptr, ptr, i64, ptr, %struct._zval_struct, i32, i32, i8, i8, ptr, ptr, ptr, %struct._zend_array, ptr, ptr, ptr, [3 x %struct.anon.8], ptr, %struct.anon.9, i64, [2 x ptr], [3 x ptr], ptr, i8, ptr, ptr, [500 x i8], i32, %struct.phpdbg_signal_safe_mem, ptr, i64, ptr, i64 }
%struct.phpdbg_frame_t = type { i32, ptr, ptr }
%struct.phpdbg_lexer_data = type { i32, ptr, ptr, ptr, ptr, i32 }
%struct.sigaction = type { %union.anon.2, %struct.__sigset_t, i32, ptr }
%union.anon.2 = type { ptr }
%struct.__sigset_t = type { [16 x i64] }
%struct.phpdbg_btree = type { i64, i64, i8, ptr }
%struct._zval_struct = type { %union._zend_value, %union.anon.4, %union.anon.7 }
%union._zend_value = type { i64 }
%union.anon.4 = type { i32 }
%union.anon.7 = type { i32 }
%struct._zend_array = type { %struct._zend_refcounted_h, %union.anon.0, i32, %union.anon.1, i32, i32, i32, i32, i64, ptr }
%struct._zend_refcounted_h = type { i32, %union.anon }
%union.anon = type { i32 }
%union.anon.0 = type { i32 }
%union.anon.1 = type { ptr }
%struct.anon.8 = type { i32 }
%struct.anon.9 = type { i8, i32, i32, ptr, i32 }
%struct.phpdbg_signal_safe_mem = type { ptr, i8, ptr, ptr }
%struct._zend_executor_globals = type { %struct._zval_struct, %struct._zval_struct, [32 x ptr], ptr, ptr, %struct._zend_array, %struct._zend_array, ptr, i32, i32, ptr, ptr, ptr, ptr, ptr, ptr, i64, ptr, ptr, i32, i32, i64, i32, i32, i32, i8, i8, %struct.zend_atomic_bool_s, %struct.zend_atomic_bool_s, ptr, i64, ptr, ptr, %struct._zend_array, %struct._zend_array, i32, i8, %struct._zval_struct, %struct._zval_struct, %struct._zend_stack, %struct._zend_stack, %struct._zend_stack, ptr, i32, i32, i64, ptr, ptr, ptr, %struct._zend_objects_store, ptr, ptr, ptr, [3 x %struct._zend_op], ptr, i8, i8, i64, i32, i32, ptr, [16 x %struct._HashTableIterator], ptr, %union._zend_function, %struct._zend_op, %struct._zend_array, i64, %struct.zend_get_gc_buffer, ptr, ptr, ptr, i64, i8, i32, ptr, ptr, i64, %struct._zend_call_stack, i64, i64, [6 x ptr] }
%struct.zend_atomic_bool_s = type { i8 }
%struct._zend_stack = type { i32, i32, i32, ptr }
%struct._zend_objects_store = type { ptr, i32, i32, i32 }
%struct._HashTableIterator = type { ptr, i32, i32 }
%union._zend_function = type { %struct._zend_op_array }
%struct._zend_op_array = type { i8, [3 x i8], i32, ptr, ptr, ptr, i32, i32, ptr, ptr, ptr, ptr, i32, i32, i32, i32, ptr, ptr, ptr, ptr, ptr, i32, i32, ptr, ptr, ptr, i32, i32, i32, i32, ptr, ptr, [6 x ptr] }
%struct._zend_op = type { ptr, %union._znode_op, %union._znode_op, %union._znode_op, i32, i32, i8, i8, i8, i8 }
%union._znode_op = type { i32 }
%struct.zend_get_gc_buffer = type { ptr, ptr, ptr }
%struct._zend_call_stack = type { ptr, i64 }
%struct._phpdbg_param = type { i32, i64, i64, %struct.anon.10, %struct.anon.11, ptr, i64, ptr, ptr }
%struct.anon.10 = type { ptr, i64 }
%struct.anon.11 = type { ptr, ptr }

@phpdbg_globals = external global %struct._zend_phpdbg_globals, align 8
@executor_globals = external global %struct._zend_executor_globals, align 8
@.str.157 = private unnamed_addr constant [14 x i8] c"Registered %s\00", align 1
@.str.158 = private unnamed_addr constant [47 x i8] c"The requested function (%s) could not be found\00", align 1
@.str.159 = private unnamed_addr constant [42 x i8] c"The requested name (%s) is already in use\00", align 1

; Function Attrs: nounwind uwtable
define hidden i32 @phpdbg_do_register(ptr noundef %0) #0 {
  %2 = alloca ptr, align 8
  %3 = alloca ptr, align 8
  %4 = alloca ptr, align 8
  %5 = alloca i64, align 8
  %6 = alloca ptr, align 8
  %7 = alloca ptr, align 8
  %8 = alloca ptr, align 8
  %9 = alloca i64, align 8
  %10 = alloca ptr, align 8
  %11 = alloca ptr, align 8
  %12 = alloca i64, align 8
  %13 = alloca ptr, align 8
  %14 = alloca %struct._zval_struct, align 8
  %15 = alloca ptr, align 8
  %16 = alloca ptr, align 8
  %17 = alloca ptr, align 8
  %18 = alloca ptr, align 8
  %19 = alloca i64, align 8
  store ptr %0, ptr %16, align 8
  %20 = load ptr, ptr %16, align 8
  %21 = getelementptr inbounds %struct._phpdbg_param, ptr %20, i32 0, i32 5
  %22 = load ptr, ptr %21, align 8
  %23 = load ptr, ptr %16, align 8
  %24 = getelementptr inbounds %struct._phpdbg_param, ptr %23, i32 0, i32 6
  %25 = load i64, ptr %24, align 8
  %26 = call ptr @zend_str_tolower_dup(ptr noundef %22, i64 noundef %25)
  store ptr %26, ptr %18, align 8
  %27 = load ptr, ptr %16, align 8
  %28 = getelementptr inbounds %struct._phpdbg_param, ptr %27, i32 0, i32 6
  %29 = load i64, ptr %28, align 8
  store i64 %29, ptr %19, align 8
  %30 = load ptr, ptr %18, align 8
  %31 = load i64, ptr %19, align 8
  store ptr getelementptr inbounds (%struct._zend_phpdbg_globals, ptr @phpdbg_globals, i32 0, i32 1), ptr %7, align 8
  store ptr %30, ptr %8, align 8
  store i64 %31, ptr %9, align 8
  %32 = load ptr, ptr %7, align 8
  %33 = load ptr, ptr %8, align 8
  %34 = load i64, ptr %9, align 8
  %35 = call ptr @zend_hash_str_find(ptr noundef %32, ptr noundef %33, i64 noundef %34) #15
  %36 = icmp ne ptr %35, null
  br i1 %36, label %81, label %37

37:                                               ; preds = %1
  %38 = load ptr, ptr getelementptr inbounds (%struct._zend_executor_globals, ptr @executor_globals, i32 0, i32 10), align 8
  %39 = load ptr, ptr %18, align 8
  %40 = load i64, ptr %19, align 8
  store ptr %38, ptr %3, align 8
  store ptr %39, ptr %4, align 8
  store i64 %40, ptr %5, align 8
  %41 = load ptr, ptr %3, align 8
  %42 = load ptr, ptr %4, align 8
  %43 = load i64, ptr %5, align 8
  %44 = call ptr @zend_hash_str_find(ptr noundef %41, ptr noundef %42, i64 noundef %43) #15
  store ptr %44, ptr %6, align 8
  %45 = load ptr, ptr %6, align 8
  %46 = icmp ne ptr %45, null
  br i1 %46, label %47, label %53

47:                                               ; preds = %37
  %48 = load ptr, ptr %6, align 8
  %49 = load ptr, ptr %48, align 8
  %50 = icmp ne ptr %49, null
  call void @llvm.assume(i1 %50)
  %51 = load ptr, ptr %6, align 8
  %52 = load ptr, ptr %51, align 8
  store ptr %52, ptr %2, align 8
  br label %54

53:                                               ; preds = %37
  store ptr null, ptr %2, align 8
  br label %54

54:                                               ; preds = %53, %47
  %55 = load ptr, ptr %2, align 8
  store ptr %55, ptr %17, align 8
  %56 = icmp ne ptr %55, null
  br i1 %56, label %57, label %74

57:                                               ; preds = %54
  %58 = load ptr, ptr %18, align 8
  %59 = load i64, ptr %19, align 8
  %60 = load ptr, ptr %17, align 8
  store ptr getelementptr inbounds (%struct._zend_phpdbg_globals, ptr @phpdbg_globals, i32 0, i32 1), ptr %10, align 8
  store ptr %58, ptr %11, align 8
  store i64 %59, ptr %12, align 8
  store ptr %60, ptr %13, align 8
  %61 = load ptr, ptr %13, align 8
  store ptr %61, ptr %14, align 8
  %62 = getelementptr inbounds %struct._zval_struct, ptr %14, i32 0, i32 1
  store i32 13, ptr %62, align 8
  %63 = load ptr, ptr %10, align 8
  %64 = load ptr, ptr %11, align 8
  %65 = load i64, ptr %12, align 8
  %66 = call ptr @zend_hash_str_update(ptr noundef %63, ptr noundef %64, i64 noundef %65, ptr noundef %14) #15
  store ptr %66, ptr %15, align 8
  %67 = load ptr, ptr %15, align 8
  %68 = load ptr, ptr %67, align 8
  %69 = icmp ne ptr %68, null
  call void @llvm.assume(i1 %69)
  %70 = load ptr, ptr %17, align 8
  call void @function_add_ref(ptr noundef %70)
  %71 = load i32, ptr getelementptr inbounds (%struct._zend_phpdbg_globals, ptr @phpdbg_globals, i32 0, i32 39, i64 1), align 4
  %72 = load ptr, ptr %18, align 8
  %73 = call i32 (i32, i32, ptr, ...) @phpdbg_print(i32 noundef 2, i32 noundef %71, ptr noundef @.str.157, ptr noundef %72)
  br label %80

74:                                               ; preds = %54
  %75 = load i32, ptr getelementptr inbounds (%struct._zend_phpdbg_globals, ptr @phpdbg_globals, i32 0, i32 39, i64 1), align 4
  %76 = load ptr, ptr %16, align 8
  %77 = getelementptr inbounds %struct._phpdbg_param, ptr %76, i32 0, i32 5
  %78 = load ptr, ptr %77, align 8
  %79 = call i32 (i32, i32, ptr, ...) @phpdbg_print(i32 noundef 1, i32 noundef %75, ptr noundef @.str.158, ptr noundef %78)
  br label %80

80:                                               ; preds = %74, %57
  br label %85

81:                                               ; preds = %1
  %82 = load i32, ptr getelementptr inbounds (%struct._zend_phpdbg_globals, ptr @phpdbg_globals, i32 0, i32 39, i64 1), align 4
  %83 = load ptr, ptr %18, align 8
  %84 = call i32 (i32, i32, ptr, ...) @phpdbg_print(i32 noundef 1, i32 noundef %82, ptr noundef @.str.159, ptr noundef %83)
  br label %85

85:                                               ; preds = %81, %80
  %86 = load ptr, ptr %18, align 8
  call void @_efree(ptr noundef %86)
  ret i32 0
}