; Function Attrs: nounwind uwtable
define hidden noundef i32 @phpdbg_do_register(ptr nocapture noundef readonly %0) #0 {
  %2 = alloca %struct._zval_struct, align 8
  %3 = getelementptr inbounds i8, ptr %0, i64 56
  %4 = load ptr, ptr %3, align 8
  %5 = getelementptr inbounds i8, ptr %0, i64 64
  %6 = load i64, ptr %5, align 8
  %7 = tail call ptr @zend_str_tolower_dup(ptr noundef %4, i64 noundef %6) #24
  %8 = load i64, ptr %5, align 8
  %9 = tail call ptr @zend_hash_str_find(ptr noundef nonnull getelementptr inbounds (%struct._zend_phpdbg_globals, ptr @phpdbg_globals, i64 0, i32 1), ptr noundef %7, i64 noundef %8) #24
  %.not = icmp eq ptr %9, null
  br i1 %.not, label %10, label %25

10:                                               ; preds = %1
  %11 = load ptr, ptr getelementptr inbounds (%struct._zend_executor_globals, ptr @executor_globals, i64 0, i32 10), align 8
  %12 = tail call ptr @zend_hash_str_find(ptr noundef %11, ptr noundef %7, i64 noundef %8) #24
  %.not30 = icmp eq ptr %12, null
  br i1 %.not30, label %21, label %13

13:                                               ; preds = %10
  %14 = load ptr, ptr %12, align 8, !nonnull !6, !noundef !6
  store ptr %14, ptr %2, align 8
  %15 = getelementptr inbounds i8, ptr %2, i64 8
  store i32 13, ptr %15, align 8
  %16 = call ptr @zend_hash_str_update(ptr noundef nonnull getelementptr inbounds (%struct._zend_phpdbg_globals, ptr @phpdbg_globals, i64 0, i32 1), ptr noundef %7, i64 noundef %8, ptr noundef nonnull %2) #24
  %17 = load ptr, ptr %16, align 8
  %18 = icmp ne ptr %17, null
  call void @llvm.assume(i1 %18)
  call void @function_add_ref(ptr noundef nonnull %14) #24
  %19 = load i32, ptr getelementptr inbounds (%struct._zend_phpdbg_globals, ptr @phpdbg_globals, i64 0, i32 39, i64 1), align 4
  %20 = call i32 (i32, i32, ptr, ...) @phpdbg_print(i32 noundef 2, i32 noundef %19, ptr noundef nonnull @.str.157, ptr noundef %7) #24
  br label %28

21:                                               ; preds = %10
  %22 = load i32, ptr getelementptr inbounds (%struct._zend_phpdbg_globals, ptr @phpdbg_globals, i64 0, i32 39, i64 1), align 4
  %23 = load ptr, ptr %3, align 8
  %24 = tail call i32 (i32, i32, ptr, ...) @phpdbg_print(i32 noundef 1, i32 noundef %22, ptr noundef nonnull @.str.158, ptr noundef %23) #24
  br label %28

25:                                               ; preds = %1
  %26 = load i32, ptr getelementptr inbounds (%struct._zend_phpdbg_globals, ptr @phpdbg_globals, i64 0, i32 39, i64 1), align 4
  %27 = tail call i32 (i32, i32, ptr, ...) @phpdbg_print(i32 noundef 1, i32 noundef %26, ptr noundef nonnull @.str.159, ptr noundef %7) #24
  br label %28

28:                                               ; preds = %13, %21, %25
  call void @_efree(ptr noundef %7) #24
  ret i32 0
}